; Function Attrs: nofree nounwind memory(readwrite, argmem: read) uwtable
define noalias noundef ptr @Gia_Gen2CodeOneP(i32 noundef %0, i32 noundef %1, ptr noundef readonly captures(none) %2, i32 noundef %3) local_unnamed_addr #7 {
  %5 = ashr i32 %1, 6
  %6 = and i32 %1, 63
  %7 = icmp ne i32 %6, 0
  %8 = zext i1 %7 to i32
  %9 = add nsw i32 %5, %8
  %10 = sext i32 %9 to i64
  %11 = tail call noalias ptr @calloc(i64 noundef %10, i64 noundef 8) #32
  %12 = icmp sgt i32 %1, 0
  br i1 %12, label %.lr.ph, label %._crit_edge

.lr.ph:                                           ; preds = %4
  %13 = getelementptr i8, ptr %2, i64 8
  %.val = load ptr, ptr %13, align 8, !tbaa !10
  br label %14

14:                                               ; preds = %.lr.ph, %28
  %.010 = phi i32 [ 0, %.lr.ph ], [ %29, %28 ]
  %15 = shl i32 %.010, %0
  %16 = add nsw i32 %15, %3
  %17 = sext i32 %16 to i64
  %18 = getelementptr inbounds i32, ptr %.val, i64 %17
  %19 = load i32, ptr %18, align 4, !tbaa !12
  %.not = icmp eq i32 %19, 0
  br i1 %.not, label %28, label %20

20:                                               ; preds = %14
  %21 = and i32 %.010, 31
  %22 = shl nuw i32 1, %21
  %23 = lshr i32 %.010, 5
  %24 = zext nneg i32 %23 to i64
  %25 = getelementptr inbounds nuw i32, ptr %11, i64 %24
  %26 = load i32, ptr %25, align 4, !tbaa !12
  %27 = or i32 %26, %22
  store i32 %27, ptr %25, align 4, !tbaa !12
  br label %28

28:                                               ; preds = %14, %20
  %29 = add nuw nsw i32 %.010, 1
  %exitcond.not = icmp eq i32 %29, %1
  br i1 %exitcond.not, label %._crit_edge, label %14, !llvm.loop !62

._crit_edge:                                      ; preds = %28, %4
  ret ptr %11
}